target datalayout = "e-m:e-p270:32:32-p271:32:32-p272:64:64-i64:64-i128:128-f80:128-n8:16:32:64-S128"
target triple = "x86_64-pc-linux-gnu"

%struct._object = type { %union.anon, ptr }
%union.anon = type { i64 }
%struct.anon.4 = type { i32, i32 }

@PyExc_RuntimeWarning = external global ptr, align 8

; Function Attrs: alwaysinline nounwind uwtable
define internal i32 @_Py_IsImmortal(ptr noundef %0) #4 {
  %2 = alloca ptr, align 8
  store ptr %0, ptr %2, align 8, !tbaa !21
  %3 = load ptr, ptr %2, align 8, !tbaa !21
  %4 = getelementptr inbounds nuw %struct._object, ptr %3, i32 0, i32 0
  %5 = getelementptr inbounds nuw %struct.anon.4, ptr %4, i32 0, i32 0
  %6 = load i32, ptr %5, align 8, !tbaa !37
  %7 = icmp slt i32 %6, 0
  %8 = zext i1 %7 to i32
  ret i32 %8
}

; Function Attrs: alwaysinline nounwind uwtable
define internal void @Py_DECREF(ptr noundef %0) #4 {
  %2 = alloca ptr, align 8
  store ptr %0, ptr %2, align 8, !tbaa !21
  %3 = load ptr, ptr %2, align 8, !tbaa !21
  %4 = call i32 @_Py_IsImmortal(ptr noundef %3)
  %5 = icmp ne i32 %4, 0
  br i1 %5, label %6, label %7

6:                                                ; preds = %1
  br label %16

7:                                                ; preds = %1
  %8 = load ptr, ptr %2, align 8, !tbaa !21
  %9 = getelementptr inbounds nuw %struct._object, ptr %8, i32 0, i32 0
  %10 = getelementptr inbounds nuw %struct.anon.4, ptr %9, i32 0, i32 0
  %11 = load i32, ptr %10, align 8, !tbaa !37
  %12 = add i32 %11, -1
  store i32 %12, ptr %10, align 8, !tbaa !37
  %13 = icmp eq i32 %12, 0
  br i1 %13, label %14, label %16

14:                                               ; preds = %7
  %15 = load ptr, ptr %2, align 8, !tbaa !21
  call void @_Py_Dealloc(ptr noundef %15)
  br label %16

16:                                               ; preds = %6, %14, %7
  ret void
}

; Function Attrs: nounwind uwtable
define internal i32 @warn_unicode(ptr noundef %0, ptr noundef %1, i64 noundef %2, ptr noundef %3) #0 {
  %5 = alloca i32, align 4
  %6 = alloca ptr, align 8
  %7 = alloca ptr, align 8
  %8 = alloca i64, align 8
  %9 = alloca ptr, align 8
  %10 = alloca ptr, align 8
  %11 = alloca i32, align 4
  store ptr %0, ptr %6, align 8, !tbaa !21
  store ptr %1, ptr %7, align 8, !tbaa !21
  store i64 %2, ptr %8, align 8, !tbaa !22
  store ptr %3, ptr %9, align 8, !tbaa !21
  call void @llvm.lifetime.start.p0(i64 8, ptr %10) #8
  %12 = load ptr, ptr %6, align 8, !tbaa !21
  %13 = icmp eq ptr %12, null
  br i1 %13, label %14, label %16

14:                                               ; preds = %4
  %15 = load ptr, ptr @PyExc_RuntimeWarning, align 8, !tbaa !21
  store ptr %15, ptr %6, align 8, !tbaa !21
  br label %16

16:                                               ; preds = %14, %4
  %17 = load ptr, ptr %7, align 8, !tbaa !21
  %18 = load ptr, ptr %6, align 8, !tbaa !21
  %19 = load i64, ptr %8, align 8, !tbaa !22
  %20 = load ptr, ptr %9, align 8, !tbaa !21
  %21 = call ptr @do_warn(ptr noundef %17, ptr noundef %18, i64 noundef %19, ptr noundef %20, ptr noundef null)
  store ptr %21, ptr %10, align 8, !tbaa !21
  %22 = load ptr, ptr %10, align 8, !tbaa !21
  %23 = icmp eq ptr %22, null
  br i1 %23, label %24, label %25

24:                                               ; preds = %16
  store i32 -1, ptr %5, align 4
  store i32 1, ptr %11, align 4
  br label %27

25:                                               ; preds = %16
  %26 = load ptr, ptr %10, align 8, !tbaa !21
  call void @Py_DECREF(ptr noundef %26)
  store i32 0, ptr %5, align 4
  store i32 1, ptr %11, align 4
  br label %27

27:                                               ; preds = %25, %24
  call void @llvm.lifetime.end.p0(i64 8, ptr %10) #8
  %28 = load i32, ptr %5, align 4
  ret i32 %28
}

; Function Attrs: nounwind uwtable
define dso_local i32 @PyErr_WarnEx(ptr noundef %0, ptr noundef %1, i64 noundef %2) #0 {
  %4 = alloca i32, align 4
  %5 = alloca ptr, align 8
  %6 = alloca ptr, align 8
  %7 = alloca i64, align 8
  %8 = alloca i32, align 4
  %9 = alloca ptr, align 8
  %10 = alloca i32, align 4
  store ptr %0, ptr %5, align 8, !tbaa !21
  store ptr %1, ptr %6, align 8, !tbaa !31
  store i64 %2, ptr %7, align 8, !tbaa !22
  call void @llvm.lifetime.start.p0(i64 4, ptr %8) #8
  call void @llvm.lifetime.start.p0(i64 8, ptr %9) #8
  %11 = load ptr, ptr %6, align 8, !tbaa !31
  %12 = call ptr @PyUnicode_FromString(ptr noundef %11)
  store ptr %12, ptr %9, align 8, !tbaa !21
  %13 = load ptr, ptr %9, align 8, !tbaa !21
  %14 = icmp eq ptr %13, null
  br i1 %14, label %15, label %16

15:                                               ; preds = %3
  store i32 -1, ptr %4, align 4
  store i32 1, ptr %10, align 4
  br label %23

16:                                               ; preds = %3
  %17 = load ptr, ptr %5, align 8, !tbaa !21
  %18 = load ptr, ptr %9, align 8, !tbaa !21
  %19 = load i64, ptr %7, align 8, !tbaa !22
  %20 = call i32 @warn_unicode(ptr noundef %17, ptr noundef %18, i64 noundef %19, ptr noundef null)
  store i32 %20, ptr %8, align 4, !tbaa !33
  %21 = load ptr, ptr %9, align 8, !tbaa !21
  call void @Py_DECREF(ptr noundef %21)
  %22 = load i32, ptr %8, align 4, !tbaa !33
  store i32 %22, ptr %4, align 4
  store i32 1, ptr %10, align 4
  br label %23

23:                                               ; preds = %16, %15
  call void @llvm.lifetime.end.p0(i64 8, ptr %9) #8
  call void @llvm.lifetime.end.p0(i64 4, ptr %8) #8
  %24 = load i32, ptr %4, align 4
  ret i32 %24
}

; Function Attrs: nounwind uwtable
define hidden i32 @PyErr_Warn(ptr noundef %0, ptr noundef %1) #0 {
  %3 = alloca ptr, align 8
  %4 = alloca ptr, align 8
  store ptr %0, ptr %3, align 8, !tbaa !21
  store ptr %1, ptr %4, align 8, !tbaa !31
  %5 = load ptr, ptr %3, align 8, !tbaa !21
  %6 = load ptr, ptr %4, align 8, !tbaa !31
  %7 = call i32 @PyErr_WarnEx(ptr noundef %5, ptr noundef %6, i64 noundef 1)
  ret i32 %7
}