; Function Attrs: nounwind uwtable
define hidden range(i32 -1, 1) i32 @PyErr_Warn(ptr noundef %0, ptr noundef %1) local_unnamed_addr #0 {
  %3 = tail call ptr @PyUnicode_FromString(ptr noundef %1) #7
  %4 = icmp eq ptr %3, null
  br i1 %4, label %PyErr_WarnEx.exit, label %5

5:                                                ; preds = %2
  %6 = icmp eq ptr %0, null
  %7 = load ptr, ptr @PyExc_RuntimeWarning, align 8
  %spec.select.i.i = select i1 %6, ptr %7, ptr %0
  %8 = tail call fastcc ptr @do_warn(ptr noundef nonnull %3, ptr noundef %spec.select.i.i, i64 noundef 1, ptr noundef null, ptr noundef null)
  %9 = icmp eq ptr %8, null
  br i1 %9, label %warn_unicode.exit.i, label %10

10:                                               ; preds = %5
  %11 = load i32, ptr %8, align 8, !tbaa !15
  %.not.i.i.i = icmp sgt i32 %11, -1
  br i1 %.not.i.i.i, label %12, label %warn_unicode.exit.i

12:                                               ; preds = %10
  %13 = add nsw i32 %11, -1
  store i32 %13, ptr %8, align 8, !tbaa !15
  %14 = icmp eq i32 %13, 0
  br i1 %14, label %15, label %warn_unicode.exit.i

15:                                               ; preds = %12
  tail call void @_Py_Dealloc(ptr noundef nonnull %8) #7
  br label %warn_unicode.exit.i

warn_unicode.exit.i:                              ; preds = %15, %12, %10, %5
  %.0.i.i = phi i32 [ -1, %5 ], [ 0, %10 ], [ 0, %12 ], [ 0, %15 ]
  %16 = load i32, ptr %3, align 8, !tbaa !15
  %.not.i.i = icmp sgt i32 %16, -1
  br i1 %.not.i.i, label %17, label %PyErr_WarnEx.exit

17:                                               ; preds = %warn_unicode.exit.i
  %18 = add nsw i32 %16, -1
  store i32 %18, ptr %3, align 8, !tbaa !15
  %19 = icmp eq i32 %18, 0
  br i1 %19, label %20, label %PyErr_WarnEx.exit

20:                                               ; preds = %17
  tail call void @_Py_Dealloc(ptr noundef nonnull %3) #7
  br label %PyErr_WarnEx.exit

PyErr_WarnEx.exit:                                ; preds = %2, %warn_unicode.exit.i, %17, %20
  %.0.i = phi i32 [ -1, %2 ], [ %.0.i.i, %warn_unicode.exit.i ], [ %.0.i.i, %17 ], [ %.0.i.i, %20 ]
  ret i32 %.0.i
}